target datalayout = "e-m:e-p270:32:32-p271:32:32-p272:64:64-i64:64-i128:128-f80:128-n8:16:32:64-S128"
target triple = "x86_64-pc-linux-gnu"

%struct.hs_scratch = type { i32, i8, i32, i32, i32, i32, i32, %struct.RoseContext, ptr, ptr, ptr, ptr, ptr, ptr, ptr, i64, %struct.catchup_pq, %struct.core_info, %struct.match_deduper, i32, i32, ptr, ptr, ptr, ptr, ptr, i64, i32, i32, i32, i32, i32, ptr, ptr, i8 }
%struct.RoseContext = type { i8, i64, i64, i64, i64, i64, i64, i64, i64, i64, i32, i32, ptr, i64, ptr, i64 }
%struct.catchup_pq = type { ptr, i32 }
%struct.core_info = type { ptr, ptr, ptr, ptr, ptr, ptr, ptr, ptr, i64, ptr, i64, i64, i8 }
%struct.match_deduper = type { [2 x ptr], [2 x ptr], [2 x ptr], i32, i32, i64, i8 }
%struct.RoseEngine = type { i8, i8, i8, i8, i8, i8, i8, i8, i8, i32, i32, i32, i32, i32, i32, i32, i32, i32, i32, i32, i32, i32, i32, i32, i32, i32, i32, i32, i32, i32, i32, i32, i32, i32, i32, i32, i32, i32, i32, i32, i32, i32, i32, i32, i32, i32, i32, i32, i32, i32, i32, i32, i32, i32, i32, i32, i32, i32, i32, i32, i32, i32, i32, i32, i32, i32, i64, i64, i32, i32, i32, i32, i32, i32, i32, %struct.RoseStateOffsets, %struct.RoseBoundaryReports, i32, i32, i32, i32, i32, i32, i32, i32, i32, i32, i32, i32, %struct.scatter_full_plan }
%struct.RoseStateOffsets = type { i32, i32, i32, i32, i32, i32, i32, i32, i32, i32, i32, i32, i32, i32, i32, i32, i32, i32, i32, i32, i32, i32, i32 }
%struct.RoseBoundaryReports = type { i32, i32, i32 }
%struct.scatter_full_plan = type { i32, i32, i32, i32, i32, i32, i32, i32 }

; Function Attrs: alwaysinline nounwind uwtable
define internal void @fatbit_clear(ptr noundef %0) #3 {
  %2 = alloca ptr, align 8
  store ptr %0, ptr %2, align 8
  %3 = load ptr, ptr %2, align 8
  call void @llvm.memset.p0.i64(ptr align 8 %3, i8 0, i64 32, i1 false)
  ret void
}

; Function Attrs: alwaysinline nounwind uwtable
define internal signext i8 @can_stop_matching(ptr noundef %0) #3 {
  %2 = alloca ptr, align 8
  store ptr %0, ptr %2, align 8
  %3 = load ptr, ptr %2, align 8
  %4 = getelementptr inbounds nuw %struct.hs_scratch, ptr %3, i32 0, i32 17
  %5 = getelementptr inbounds nuw %struct.core_info, ptr %4, i32 0, i32 12
  %6 = load i8, ptr %5, align 8
  %7 = zext i8 %6 to i32
  %8 = and i32 %7, 11
  %9 = trunc i32 %8 to i8
  ret i8 %9
}

; Function Attrs: nounwind uwtable
define hidden i32 @roseRunBoundaryProgram(ptr noundef %0, i32 noundef %1, i64 noundef %2, ptr noundef %3) #0 {
  %5 = alloca i32, align 4
  %6 = alloca ptr, align 8
  %7 = alloca i32, align 4
  %8 = alloca i64, align 8
  %9 = alloca ptr, align 8
  %10 = alloca i64, align 8
  %11 = alloca i8, align 1
  %12 = alloca i64, align 8
  %13 = alloca i32, align 4
  store ptr %0, ptr %6, align 8
  store i32 %1, ptr %7, align 4
  store i64 %2, ptr %8, align 8
  store ptr %3, ptr %9, align 8
  br label %14

14:                                               ; preds = %4
  br label %15

15:                                               ; preds = %14
  %16 = load ptr, ptr %9, align 8
  %17 = call signext i8 @can_stop_matching(ptr noundef %16)
  %18 = icmp ne i8 %17, 0
  br i1 %18, label %19, label %22

19:                                               ; preds = %15
  br label %20

20:                                               ; preds = %19
  br label %21

21:                                               ; preds = %20
  store i32 0, ptr %5, align 4
  br label %63

22:                                               ; preds = %15
  %23 = load ptr, ptr %6, align 8
  %24 = getelementptr inbounds nuw %struct.RoseEngine, ptr %23, i32 0, i32 7
  %25 = load i8, ptr %24, align 1
  %26 = zext i8 %25 to i32
  %27 = icmp ne i32 %26, 0
  br i1 %27, label %28, label %48

28:                                               ; preds = %22
  %29 = load ptr, ptr %9, align 8
  %30 = getelementptr inbounds nuw %struct.hs_scratch, ptr %29, i32 0, i32 18
  %31 = getelementptr inbounds nuw %struct.match_deduper, ptr %30, i32 0, i32 5
  %32 = load i64, ptr %31, align 8
  %33 = icmp eq i64 %32, -1
  br i1 %33, label %34, label %48

34:                                               ; preds = %28
  %35 = load ptr, ptr %9, align 8
  %36 = getelementptr inbounds nuw %struct.hs_scratch, ptr %35, i32 0, i32 18
  %37 = getelementptr inbounds nuw %struct.match_deduper, ptr %36, i32 0, i32 1
  %38 = getelementptr inbounds [2 x ptr], ptr %37, i64 0, i64 0
  %39 = load ptr, ptr %38, align 16
  call void @fatbit_clear(ptr noundef %39)
  %40 = load ptr, ptr %9, align 8
  %41 = getelementptr inbounds nuw %struct.hs_scratch, ptr %40, i32 0, i32 18
  %42 = getelementptr inbounds nuw %struct.match_deduper, ptr %41, i32 0, i32 1
  %43 = getelementptr inbounds [2 x ptr], ptr %42, i64 0, i64 1
  %44 = load ptr, ptr %43, align 8
  call void @fatbit_clear(ptr noundef %44)
  %45 = load ptr, ptr %9, align 8
  %46 = getelementptr inbounds nuw %struct.hs_scratch, ptr %45, i32 0, i32 18
  %47 = getelementptr inbounds nuw %struct.match_deduper, ptr %46, i32 0, i32 6
  store i8 0, ptr %47, align 16
  br label %48

48:                                               ; preds = %34, %28, %22
  %49 = load i64, ptr %8, align 8
  %50 = load ptr, ptr %9, align 8
  %51 = getelementptr inbounds nuw %struct.hs_scratch, ptr %50, i32 0, i32 7
  %52 = getelementptr inbounds nuw %struct.RoseContext, ptr %51, i32 0, i32 7
  store i64 %49, ptr %52, align 8
  call void @llvm.lifetime.start.p0(i64 8, ptr %10) #8
  store i64 0, ptr %10, align 8
  call void @llvm.lifetime.start.p0(i64 1, ptr %11) #8
  store i8 0, ptr %11, align 1
  call void @llvm.lifetime.start.p0(i64 8, ptr %12) #8
  %53 = load ptr, ptr %6, align 8
  %54 = load ptr, ptr %9, align 8
  %55 = load i32, ptr %7, align 4
  %56 = load i64, ptr %8, align 8
  %57 = call i64 @roseRunProgram(ptr noundef %53, ptr noundef %54, i32 noundef %55, i64 noundef 0, i64 noundef %56, i8 noundef zeroext 0)
  store i64 %57, ptr %12, align 8
  %58 = load i64, ptr %12, align 8
  %59 = icmp eq i64 %58, 0
  br i1 %59, label %60, label %61

60:                                               ; preds = %48
  store i32 0, ptr %5, align 4
  store i32 1, ptr %13, align 4
  br label %62

61:                                               ; preds = %48
  store i32 1, ptr %5, align 4
  store i32 1, ptr %13, align 4
  br label %62

62:                                               ; preds = %61, %60
  call void @llvm.lifetime.end.p0(i64 8, ptr %12) #8
  call void @llvm.lifetime.end.p0(i64 1, ptr %11) #8
  call void @llvm.lifetime.end.p0(i64 8, ptr %10) #8
  br label %63

63:                                               ; preds = %62, %21
  %64 = load i32, ptr %5, align 4
  ret i32 %64
}