; Function Attrs: nounwind uwtable
define hidden range(i32 0, 2) i32 @roseRunBoundaryProgram(ptr noundef %0, i32 noundef %1, i64 noundef %2, ptr noundef %3) local_unnamed_addr #0 {
  %5 = getelementptr inbounds nuw i8, ptr %3, i64 328
  %6 = load i8, ptr %5, align 8
  %7 = and i8 %6, 11
  %.not = icmp eq i8 %7, 0
  br i1 %.not, label %8, label %25

8:                                                ; preds = %4
  %9 = getelementptr inbounds nuw i8, ptr %0, i64 7
  %10 = load i8, ptr %9, align 1
  %.not13 = icmp eq i8 %10, 0
  br i1 %.not13, label %21, label %11

11:                                               ; preds = %8
  %12 = getelementptr inbounds nuw i8, ptr %3, i64 392
  %13 = load i64, ptr %12, align 8
  %14 = icmp eq i64 %13, -1
  br i1 %14, label %15, label %21

15:                                               ; preds = %11
  %16 = getelementptr inbounds nuw i8, ptr %3, i64 352
  %17 = load ptr, ptr %16, align 16
  tail call void @llvm.memset.p0.i64(ptr noundef nonnull align 8 dereferenceable(32) %17, i8 0, i64 32, i1 false)
  %18 = getelementptr inbounds nuw i8, ptr %3, i64 360
  %19 = load ptr, ptr %18, align 8
  tail call void @llvm.memset.p0.i64(ptr noundef nonnull align 8 dereferenceable(32) %19, i8 0, i64 32, i1 false)
  %20 = getelementptr inbounds nuw i8, ptr %3, i64 400
  store i8 0, ptr %20, align 16
  br label %21

21:                                               ; preds = %15, %11, %8
  %22 = getelementptr inbounds nuw i8, ptr %3, i64 88
  store i64 %2, ptr %22, align 8
  %23 = tail call i64 @roseRunProgram(ptr noundef nonnull %0, ptr noundef nonnull %3, i32 noundef %1, i64 noundef 0, i64 noundef %2, i8 noundef zeroext 0) #6
  %24 = icmp ne i64 %23, 0
  %. = zext i1 %24 to i32
  br label %25

25:                                               ; preds = %4, %21
  %.0 = phi i32 [ %., %21 ], [ 0, %4 ]
  ret i32 %.0
}